target datalayout = "e-m:e-p270:32:32-p271:32:32-p272:64:64-i64:64-i128:128-f80:128-n8:16:32:64-S128"
target triple = "x86_64-pc-linux-gnu"

%struct._e_prefs = type { ptr, i32, %struct.color_t, %struct.color_t, %struct.color_t, %struct.color_t, %struct.color_t, %struct.color_t, %struct.color_t, i32, i32, ptr, %struct.color_t, %struct.color_t, i32, %struct.color_t, %struct.color_t, i32, %struct.color_t, %struct.color_t, %struct.color_t, %struct.color_t, ptr, ptr, i32, i32, i32, i32, i32, i32, ptr, i32, ptr, i32, i32, i32, ptr, ptr, ptr, i32, i32, i32, i32, i32, i32, i32, i32, i32, i32, ptr, i32, i32, i32, i32, i32, ptr, ptr, ptr, ptr, ptr, ptr, ptr, ptr, ptr, i32, i32, i32, i32, i32, i32, i32, i32, ptr, i32, i32, i32, i32, i32, i32, i32, i32, i32, i32, i32, i32, i32, i32, ptr, i32, i32, i32, i32, i32, i32, i32, i32, i32, i32, i32, i32, i32, i32, i32, i32, i32, i32, i32, i32, i32, i32, i32, i32, i32, i32, i32 }
%struct.color_t = type { i16, i16, i16 }

@prefs = external global %struct._e_prefs, align 8
@.str.26 = private unnamed_addr constant [2 x i8] c"\0A\00", align 1
@.str.62 = private unnamed_addr constant [5 x i8] c"%s:\0A\00", align 1
@.str.63 = private unnamed_addr constant [13 x i8] c"column.width\00", align 1
@.str.64 = private unnamed_addr constant [3 x i8] c",\0A\00", align 1
@.str.65 = private unnamed_addr constant [20 x i8] c"        \22%%Cus:%s\22,\00", align 1
@.str.66 = private unnamed_addr constant [12 x i8] c"        %s,\00", align 1
@.str.67 = private unnamed_addr constant [4 x i8] c" %d\00", align 1
@.str.68 = private unnamed_addr constant [4 x i8] c":%c\00", align 1

; Function Attrs: mustprogress uwtable
define void @_ZN10PacketList11writeRecentEP8_IO_FILE(ptr noundef nonnull align 8 dereferenceable(464) %0, ptr noundef %1) #0 align 2 {
  %3 = alloca ptr, align 8
  %4 = alloca ptr, align 8
  %5 = alloca i32, align 4
  %6 = alloca i32, align 4
  %7 = alloca i32, align 4
  %8 = alloca i8, align 1
  store ptr %0, ptr %3, align 8
  store ptr %1, ptr %4, align 8
  %9 = load ptr, ptr %4, align 8
  %10 = call i32 (ptr, ptr, ...) @fprintf(ptr noundef %9, ptr noundef @.str.62, ptr noundef @.str.63) #16
  store i32 0, ptr %5, align 4
  br label %11

11:                                               ; preds = %53, %2
  %12 = load i32, ptr %5, align 4
  %13 = load i32, ptr getelementptr inbounds (%struct._e_prefs, ptr @prefs, i32 0, i32 1), align 8
  %14 = icmp slt i32 %12, %13
  br i1 %14, label %15, label %56

15:                                               ; preds = %11
  %16 = load i32, ptr %5, align 4
  %17 = icmp sgt i32 %16, 0
  br i1 %17, label %18, label %21

18:                                               ; preds = %15
  %19 = load ptr, ptr %4, align 8
  %20 = call i32 (ptr, ptr, ...) @fprintf(ptr noundef %19, ptr noundef @.str.64) #16
  br label %21

21:                                               ; preds = %18, %15
  %22 = load i32, ptr %5, align 4
  %23 = call i32 @get_column_format(i32 noundef %22)
  store i32 %23, ptr %7, align 4
  %24 = load i32, ptr %7, align 4
  %25 = icmp eq i32 %24, 4
  br i1 %25, label %26, label %31

26:                                               ; preds = %21
  %27 = load ptr, ptr %4, align 8
  %28 = load i32, ptr %5, align 4
  %29 = call ptr @get_column_custom_fields(i32 noundef %28)
  %30 = call i32 (ptr, ptr, ...) @fprintf(ptr noundef %27, ptr noundef @.str.65, ptr noundef %29) #16
  br label %36

31:                                               ; preds = %21
  %32 = load ptr, ptr %4, align 8
  %33 = load i32, ptr %7, align 4
  %34 = call ptr @col_format_to_string(i32 noundef %33)
  %35 = call i32 (ptr, ptr, ...) @fprintf(ptr noundef %32, ptr noundef @.str.66, ptr noundef %34) #16
  br label %36

36:                                               ; preds = %31, %26
  %37 = load i32, ptr %5, align 4
  %38 = call i32 @recent_get_column_width(i32 noundef %37)
  store i32 %38, ptr %6, align 4
  %39 = load i32, ptr %5, align 4
  %40 = call signext i8 @recent_get_column_xalign(i32 noundef %39)
  store i8 %40, ptr %8, align 1
  %41 = load ptr, ptr %4, align 8
  %42 = load i32, ptr %6, align 4
  %43 = call i32 (ptr, ptr, ...) @fprintf(ptr noundef %41, ptr noundef @.str.67, i32 noundef %42) #16
  %44 = load i8, ptr %8, align 1
  %45 = sext i8 %44 to i32
  %46 = icmp ne i32 %45, 0
  br i1 %46, label %47, label %52

47:                                               ; preds = %36
  %48 = load ptr, ptr %4, align 8
  %49 = load i8, ptr %8, align 1
  %50 = sext i8 %49 to i32
  %51 = call i32 (ptr, ptr, ...) @fprintf(ptr noundef %48, ptr noundef @.str.68, i32 noundef %50) #16
  br label %52

52:                                               ; preds = %47, %36
  br label %53

53:                                               ; preds = %52
  %54 = load i32, ptr %5, align 4
  %55 = add i32 %54, 1
  store i32 %55, ptr %5, align 4
  br label %11, !llvm.loop !6

56:                                               ; preds = %11
  %57 = load ptr, ptr %4, align 8
  %58 = call i32 (ptr, ptr, ...) @fprintf(ptr noundef %57, ptr noundef @.str.26) #16
  ret void
}