; Function Attrs: mustprogress uwtable
define void @_ZN10PacketList11writeRecentEP8_IO_FILE(ptr nocapture nonnull readnone align 8 %0, ptr nocapture noundef %1) local_unnamed_addr #0 align 2 {
  %3 = tail call i32 (ptr, ptr, ...) @fprintf(ptr noundef %1, ptr noundef nonnull @.str.62, ptr noundef nonnull @.str.63) #20
  %4 = load i32, ptr getelementptr inbounds (%struct._e_prefs, ptr @prefs, i64 0, i32 1), align 8
  %5 = icmp sgt i32 %4, 0
  br i1 %5, label %.lr.ph, label %._crit_edge

.lr.ph:                                           ; preds = %2, %24
  %.021 = phi i32 [ %25, %24 ], [ 0, %2 ]
  %.not20 = icmp eq i32 %.021, 0
  br i1 %.not20, label %8, label %6

6:                                                ; preds = %.lr.ph
  %7 = tail call i64 @fwrite(ptr nonnull @.str.64, i64 2, i64 1, ptr %1)
  br label %8

8:                                                ; preds = %6, %.lr.ph
  %9 = tail call i32 @get_column_format(i32 noundef %.021)
  %10 = icmp eq i32 %9, 4
  br i1 %10, label %11, label %14

11:                                               ; preds = %8
  %12 = tail call ptr @get_column_custom_fields(i32 noundef %.021)
  %13 = tail call i32 (ptr, ptr, ...) @fprintf(ptr noundef %1, ptr noundef nonnull @.str.65, ptr noundef %12) #20
  br label %17

14:                                               ; preds = %8
  %15 = tail call ptr @col_format_to_string(i32 noundef %9)
  %16 = tail call i32 (ptr, ptr, ...) @fprintf(ptr noundef %1, ptr noundef nonnull @.str.66, ptr noundef %15) #20
  br label %17

17:                                               ; preds = %14, %11
  %18 = tail call i32 @recent_get_column_width(i32 noundef %.021)
  %19 = tail call signext i8 @recent_get_column_xalign(i32 noundef %.021)
  %20 = tail call i32 (ptr, ptr, ...) @fprintf(ptr noundef %1, ptr noundef nonnull @.str.67, i32 noundef %18) #20
  %.not = icmp eq i8 %19, 0
  br i1 %.not, label %24, label %21

21:                                               ; preds = %17
  %22 = sext i8 %19 to i32
  %23 = tail call i32 (ptr, ptr, ...) @fprintf(ptr noundef %1, ptr noundef nonnull @.str.68, i32 noundef %22) #20
  br label %24

24:                                               ; preds = %17, %21
  %25 = add nuw nsw i32 %.021, 1
  %26 = load i32, ptr getelementptr inbounds (%struct._e_prefs, ptr @prefs, i64 0, i32 1), align 8
  %27 = icmp slt i32 %25, %26
  br i1 %27, label %.lr.ph, label %._crit_edge, !llvm.loop !10

._crit_edge:                                      ; preds = %24, %2
  %fputc = tail call i32 @fputc(i32 10, ptr %1)
  ret void
}